cnumpy.core.multiarray
_reconstruct
p0
(cnumpy
ndarray
p1
(I0
tp2
S'b'
p3
tp4
Rp5
(I1
(I219
tp6
cnumpy
dtype
p7
(S'S19'
p8
I0
I1
tp9
Rp10
(I3
S'|'
p11
NNNI19
I1
I0
tp12
bI00
S'./clean/KM-NE1.tiff./clean/KM-NE2.tiff./clean/KM-NE3.tiff./clean/KM-HA1.tiff./clean/KM-HA2.tiff./clean/KM-HA3.tiff./clean/KM-HA4.tiff./clean/KM-HA5.tiff./clean/KM-SA1.tiff./clean/KM-SA2.tiff./clean/KM-SA3.tiff./clean/KM-SA4.tiff./clean/KM-SA5.tiff./clean/KM-SU1.tiff./clean/KM-SU2.tiff./clean/KM-SU3.tiff./clean/KM-AN1.tiff./clean/KM-AN2.tiff./clean/KM-AN3.tiff./clean/KM-DI1.tiff./clean/KM-DI2.tiff./clean/KM-DI3.tiff./clean/KM-FE1.tiff./clean/KM-FE2.tiff./clean/KM-FE3.tiff./clean/KA-NE1.tiff./clean/KA-NE2.tiff./clean/KA-NE3.tiff./clean/KA-HA1.tiff./clean/KA-HA2.tiff./clean/KA-HA3.tiff./clean/KA-HA4.tiff./clean/KA-SA1.tiff./clean/KA-SA2.tiff./clean/KA-SA3.tiff./clean/KA-SU1.tiff./clean/KA-SU2.tiff./clean/KA-SU3.tiff./clean/KA-AN1.tiff./clean/KA-AN2.tiff./clean/KA-AN3.tiff./clean/KA-DI1.tiff./clean/KA-DI2.tiff./clean/KA-DI3.tiff./clean/KA-FE1.tiff./clean/KA-FE2.tiff./clean/KA-FE3.tiff./clean/KA-FE4.tiff./clean/YM-NE1.tiff./clean/YM-NE2.tiff./clean/YM-NE3.tiff./clean/YM-HA1.tiff./clean/YN-HA2.tiff./clean/YM-HA3.tiff./clean/YM-SA1.tiff./clean/YM-SA2.tiff./clean/YM-SA3.tiff./clean/YM-SU1.tiff./clean/YM-SU2.tiff./clean/YM-SU3.tiff./clean/YM-AN1.tiff./clean/YM-AN2.tiff./clean/YM-AN3.tiff./clean/YM-DI1.tiff./clean/YM-DI2.tiff./clean/YM-DI3.tiff./clean/YM-FE1.tiff./clean/YM-FE2.tiff./clean/YM-FE3.tiff./clean/YM-FE4.tiff./clean/KR-NE1.tiff./clean/KR-NE2.tiff./clean/KR-NE3.tiff./clean/KR-HA1.tiff./clean/KR-HA2.tiff./clean/KR-HA3.tiff./clean/KR-SA1.tiff./clean/KR-SA2.tiff./clean/KR-SA3.tiff./clean/KR-SU1.tiff./clean/KR-SU2.tiff./clean/KR-SU3.tiff./clean/KR-AN1.tiff./clean/KR-AN2.tiff./clean/KR-AN3.tiff./clean/KR-DI1.tiff./clean/KR-DI2.tiff./clean/KR-DI3.tiff./clean/KR-FE1.tiff./clean/KR-FE2.tiff./clean/KR-FE3.tiff./clean/NM-NE1.tiff./clean/NM-NE2.tiff./clean/NM-NE3.tiff./clean/NM-HA1.tiff./clean/NM-HA2.tiff./clean/NM-HA3.tiff./clean/NM-SA1.tiff./clean/NM-SA2.tiff./clean/NM-SA3.tiff./clean/NM-SU1.tiff./clean/NM-SU2.tiff./clean/NM-SU3.tiff./clean/NM-AN1.tiff./clean/NM-AN2.tiff./clean/NM-AN3.tiff./clean/NM-DI1.tiff./clean/NM-DI2.tiff./clean/NM-DI3.tiff./clean/NM-FE1.tiff./clean/NM-FE2.tiff./clean/NM-FE3.tiff./clean/MK-NE1.tiff./clean/MK-NE2.tiff./clean/MK-NE3.tiff./clean/MK-HA1.tiff./clean/MK-HA2.tiff./clean/MK-HA3.tiff./clean/MK-SA1.tiff./clean/MK-SA2.tiff./clean/MK-SA3.tiff./clean/MK-SU1.tiff./clean/MK-SU2.tiff./clean/MK-SU3.tiff./clean/MK-AN1.tiff./clean/MK-AN2.tiff./clean/MK-AN3.tiff./clean/MK-DI1.tiff./clean/MK-DI2.tiff./clean/MK-DI3.tiff./clean/MK-FE1.tiff./clean/MK-FE2.tiff./clean/MK-FE3.tiff./clean/UY-NE1.tiff./clean/UY-NE2.tiff./clean/UY-NE3.tiff./clean/UY-HA1.tiff./clean/UY-HA2.tiff./clean/UY-HA3.tiff./clean/UY-SA1.tiff./clean/UY-SA2.tiff./clean/UY-SA3.tiff./clean/UY-SU1.tiff./clean/UY-SU2.tiff./clean/UY-SU3.tiff./clean/UY-AN1.tiff./clean/UY-AN2.tiff./clean/UY-AN3.tiff./clean/UY-DI1.tiff./clean/UY-DI2.tiff./clean/UY-DI3.tiff./clean/UY-FE1.tiff./clean/UY-FE2.tiff./clean/UY-FE3.tiff./clean/KL-NE1.tiff./clean/KL-NE2.tiff./clean/KL-NE3.tiff./clean/KL-HA1.tiff./clean/KL-HA2.tiff./clean/KL-HA3.tiff./clean/KL-SA1.tiff./clean/KL-SA2.tiff./clean/KL-SA3.tiff./clean/KL-SU1.tiff./clean/KL-SU2.tiff./clean/KL-SU3.tiff./clean/KL-AN1.tiff./clean/KL-AN2.tiff./clean/KL-AN3.tiff./clean/KL-DI1.tiff./clean/KL-DI2.tiff./clean/KL-DI3.tiff./clean/KL-DI4.tiff./clean/KL-FE1.tiff./clean/KL-FE2.tiff./clean/KL-FE3.tiff./clean/TM-NE1.tiff./clean/TM-NE2.tiff./clean/TM-NE3.tiff./clean/TM-HA1.tiff./clean/TM-HA2.tiff./clean/TM-HA3.tiff./clean/TM-HA4.tiff./clean/TM-SA1.tiff./clean/TM-SA2.tiff./clean/TM-SA3.tiff./clean/TM-SU1.tiff./clean/TM-SU2.tiff./clean/TM-SU3.tiff./clean/TM-AN1.tiff./clean/TM-AN2.tiff./clean/TM-AN3.tiff./clean/TM-DI1.tiff./clean/TM-DI2.tiff./clean/TM-DI3.tiff./clean/TM-FE1.tiff./clean/TM-FE2.tiff./clean/TM-FE3.tiff./clean/NA-NE1.tiff./clean/NA-NE2.tiff./clean/NA-NE3.tiff./clean/NA-HA1.tiff./clean/NA-HA2.tiff./clean/NA-HA3.tiff./clean/NA-SA1.tiff./clean/NA-SA2.tiff./clean/NA-SA3.tiff./clean/NA-SU1.tiff./clean/NA-SU2.tiff./clean/NA-SU3.tiff./clean/NA-AN1.tiff./clean/NA-AN2.tiff./clean/NA-AN3.tiff./clean/NA-DI1.tiff./clean/NA-DI2.tiff./clean/NA-DI3.tiff./clean/NA-FE1.tiff./clean/NA-FE2.tiff./clean/NA-FE3.tiff'
p13
tp14
b.